target datalayout = "e-m:e-p270:32:32-p271:32:32-p272:64:64-i64:64-i128:128-f80:128-n8:16:32:64-S128"
target triple = "x86_64-pc-linux-gnu"

%"class.base::BasicStringPiece" = type { ptr, i64 }

; Function Attrs: inlinehint mustprogress nounwind uwtable
define linkonce_odr void @_ZN9__gnu_cxx5__ops20__iter_equal_to_iterEv() #7 comdat {
  ret void
}

; Function Attrs: inlinehint mustprogress uwtable
define linkonce_odr noundef ptr @_ZSt6searchIPKcS1_ET_S2_S2_T0_S3_(ptr noundef %0, ptr noundef %1, ptr noundef %2, ptr noundef %3) #2 comdat {
  %5 = alloca ptr, align 8
  %6 = alloca ptr, align 8
  %7 = alloca ptr, align 8
  %8 = alloca ptr, align 8
  store ptr %0, ptr %5, align 8, !tbaa !13
  store ptr %1, ptr %6, align 8, !tbaa !13
  store ptr %2, ptr %7, align 8, !tbaa !13
  store ptr %3, ptr %8, align 8, !tbaa !13
  %9 = load ptr, ptr %5, align 8, !tbaa !13
  %10 = load ptr, ptr %6, align 8, !tbaa !13
  %11 = load ptr, ptr %7, align 8, !tbaa !13
  %12 = load ptr, ptr %8, align 8, !tbaa !13
  call void @_ZN9__gnu_cxx5__ops20__iter_equal_to_iterEv()
  %13 = call noundef ptr @_ZSt8__searchIPKcS1_N9__gnu_cxx5__ops19_Iter_equal_to_iterEET_S5_S5_T0_S6_T1_(ptr noundef %9, ptr noundef %10, ptr noundef %11, ptr noundef %12)
  ret ptr %13
}

; Function Attrs: mustprogress nounwind uwtable
define weak_odr noundef ptr @_ZNK4base16BasicStringPieceINSt7__cxx1112basic_stringIcSt11char_traitsIcESaIcEEEE3endEv(ptr noundef nonnull align 8 dereferenceable(16) %0) #0 comdat align 2 {
  %2 = alloca ptr, align 8
  store ptr %0, ptr %2, align 8, !tbaa !3
  %3 = load ptr, ptr %2, align 8
  %4 = getelementptr inbounds nuw %"class.base::BasicStringPiece", ptr %3, i32 0, i32 0
  %5 = load ptr, ptr %4, align 8, !tbaa !8
  %6 = getelementptr inbounds nuw %"class.base::BasicStringPiece", ptr %3, i32 0, i32 1
  %7 = load i64, ptr %6, align 8, !tbaa !12
  %8 = getelementptr inbounds nuw i8, ptr %5, i64 %7
  ret ptr %8
}

; Function Attrs: mustprogress nounwind uwtable
define weak_odr noundef ptr @_ZNK4base16BasicStringPieceINSt7__cxx1112basic_stringIcSt11char_traitsIcESaIcEEEE5beginEv(ptr noundef nonnull align 8 dereferenceable(16) %0) #0 comdat align 2 {
  %2 = alloca ptr, align 8
  store ptr %0, ptr %2, align 8, !tbaa !3
  %3 = load ptr, ptr %2, align 8
  %4 = getelementptr inbounds nuw %"class.base::BasicStringPiece", ptr %3, i32 0, i32 0
  %5 = load ptr, ptr %4, align 8, !tbaa !8
  ret ptr %5
}

; Function Attrs: mustprogress nounwind uwtable
define weak_odr noundef i64 @_ZNK4base16BasicStringPieceINSt7__cxx1112basic_stringIcSt11char_traitsIcESaIcEEEE4sizeEv(ptr noundef nonnull align 8 dereferenceable(16) %0) #0 comdat align 2 {
  %2 = alloca ptr, align 8
  store ptr %0, ptr %2, align 8, !tbaa !3
  %3 = load ptr, ptr %2, align 8
  %4 = getelementptr inbounds nuw %"class.base::BasicStringPiece", ptr %3, i32 0, i32 1
  %5 = load i64, ptr %4, align 8, !tbaa !12
  ret i64 %5
}

; Function Attrs: mustprogress uwtable
define linkonce_odr noundef i64 @_ZN4base8internal5findTINSt7__cxx1112basic_stringIcSt11char_traitsIcESaIcEEEEEmRKNS_16BasicStringPieceIT_EESC_m(ptr noundef nonnull align 8 dereferenceable(16) %0, ptr noundef nonnull align 8 dereferenceable(16) %1, i64 noundef %2) #1 comdat {
  %4 = alloca i64, align 8
  %5 = alloca ptr, align 8
  %6 = alloca ptr, align 8
  %7 = alloca i64, align 8
  %8 = alloca ptr, align 8
  %9 = alloca i64, align 8
  store ptr %0, ptr %5, align 8, !tbaa !3
  store ptr %1, ptr %6, align 8, !tbaa !3
  store i64 %2, ptr %7, align 8, !tbaa !19
  %10 = load i64, ptr %7, align 8, !tbaa !19
  %11 = load ptr, ptr %5, align 8, !tbaa !3
  %12 = call noundef i64 @_ZNK4base16BasicStringPieceINSt7__cxx1112basic_stringIcSt11char_traitsIcESaIcEEEE4sizeEv(ptr noundef nonnull align 8 dereferenceable(16) %11)
  %13 = icmp ugt i64 %10, %12
  br i1 %13, label %14, label %15

14:                                               ; preds = %3
  store i64 -1, ptr %4, align 8
  br label %45

15:                                               ; preds = %3
  call void @llvm.lifetime.start.p0(i64 8, ptr %8) #14
  %16 = load ptr, ptr %5, align 8, !tbaa !3
  %17 = call noundef ptr @_ZNK4base16BasicStringPieceINSt7__cxx1112basic_stringIcSt11char_traitsIcESaIcEEEE5beginEv(ptr noundef nonnull align 8 dereferenceable(16) %16)
  %18 = load i64, ptr %7, align 8, !tbaa !19
  %19 = getelementptr inbounds nuw i8, ptr %17, i64 %18
  %20 = load ptr, ptr %5, align 8, !tbaa !3
  %21 = call noundef ptr @_ZNK4base16BasicStringPieceINSt7__cxx1112basic_stringIcSt11char_traitsIcESaIcEEEE3endEv(ptr noundef nonnull align 8 dereferenceable(16) %20)
  %22 = load ptr, ptr %6, align 8, !tbaa !3
  %23 = call noundef ptr @_ZNK4base16BasicStringPieceINSt7__cxx1112basic_stringIcSt11char_traitsIcESaIcEEEE5beginEv(ptr noundef nonnull align 8 dereferenceable(16) %22)
  %24 = load ptr, ptr %6, align 8, !tbaa !3
  %25 = call noundef ptr @_ZNK4base16BasicStringPieceINSt7__cxx1112basic_stringIcSt11char_traitsIcESaIcEEEE3endEv(ptr noundef nonnull align 8 dereferenceable(16) %24)
  %26 = call noundef ptr @_ZSt6searchIPKcS1_ET_S2_S2_T0_S3_(ptr noundef %19, ptr noundef %21, ptr noundef %23, ptr noundef %25)
  store ptr %26, ptr %8, align 8, !tbaa !13
  call void @llvm.lifetime.start.p0(i64 8, ptr %9) #14
  %27 = load ptr, ptr %8, align 8, !tbaa !13
  %28 = load ptr, ptr %5, align 8, !tbaa !3
  %29 = call noundef ptr @_ZNK4base16BasicStringPieceINSt7__cxx1112basic_stringIcSt11char_traitsIcESaIcEEEE5beginEv(ptr noundef nonnull align 8 dereferenceable(16) %28)
  %30 = ptrtoint ptr %27 to i64
  %31 = ptrtoint ptr %29 to i64
  %32 = sub i64 %30, %31
  store i64 %32, ptr %9, align 8, !tbaa !19
  %33 = load i64, ptr %9, align 8, !tbaa !19
  %34 = load ptr, ptr %6, align 8, !tbaa !3
  %35 = call noundef i64 @_ZNK4base16BasicStringPieceINSt7__cxx1112basic_stringIcSt11char_traitsIcESaIcEEEE4sizeEv(ptr noundef nonnull align 8 dereferenceable(16) %34)
  %36 = add i64 %33, %35
  %37 = load ptr, ptr %5, align 8, !tbaa !3
  %38 = call noundef i64 @_ZNK4base16BasicStringPieceINSt7__cxx1112basic_stringIcSt11char_traitsIcESaIcEEEE4sizeEv(ptr noundef nonnull align 8 dereferenceable(16) %37)
  %39 = icmp ule i64 %36, %38
  br i1 %39, label %40, label %42

40:                                               ; preds = %15
  %41 = load i64, ptr %9, align 8, !tbaa !19
  br label %43

42:                                               ; preds = %15
  br label %43

43:                                               ; preds = %42, %40
  %44 = phi i64 [ %41, %40 ], [ -1, %42 ]
  store i64 %44, ptr %4, align 8
  call void @llvm.lifetime.end.p0(i64 8, ptr %9) #14
  call void @llvm.lifetime.end.p0(i64 8, ptr %8) #14
  br label %45

45:                                               ; preds = %43, %14
  %46 = load i64, ptr %4, align 8
  ret i64 %46
}

; Function Attrs: mustprogress uwtable
define noundef i64 @_ZN4base8internal4findERKNS_16BasicStringPieceINSt7__cxx1112basic_stringIcSt11char_traitsIcESaIcEEEEESA_m(ptr noundef nonnull align 8 dereferenceable(16) %0, ptr noundef nonnull align 8 dereferenceable(16) %1, i64 noundef %2) #1 {
  %4 = alloca ptr, align 8
  %5 = alloca ptr, align 8
  %6 = alloca i64, align 8
  store ptr %0, ptr %4, align 8, !tbaa !3
  store ptr %1, ptr %5, align 8, !tbaa !3
  store i64 %2, ptr %6, align 8, !tbaa !19
  %7 = load ptr, ptr %4, align 8, !tbaa !3
  %8 = load ptr, ptr %5, align 8, !tbaa !3
  %9 = load i64, ptr %6, align 8, !tbaa !19
  %10 = call noundef i64 @_ZN4base8internal5findTINSt7__cxx1112basic_stringIcSt11char_traitsIcESaIcEEEEEmRKNS_16BasicStringPieceIT_EESC_m(ptr noundef nonnull align 8 dereferenceable(16) %7, ptr noundef nonnull align 8 dereferenceable(16) %8, i64 noundef %9)
  ret i64 %10
}